target datalayout = "e-m:e-p270:32:32-p271:32:32-p272:64:64-i64:64-f80:128-n8:16:32:64-S128"
target triple = "x86_64-pc-linux-gnu"

@sum = dso_local global float 0.000000e+00, align 4
@.str = private unnamed_addr constant [3 x i8] c"%d\00", align 1
@n = common dso_local global i32 0, align 4
@a = common dso_local global [300 x i32] zeroinitializer, align 16
@ave = common dso_local global float 0.000000e+00, align 4
@.str.1 = private unnamed_addr constant [2 x i8] c",\00", align 1

; Function Attrs: noinline nounwind uwtable
define dso_local i32 @main() #0 {
  %1 = alloca i32, align 4
  %2 = alloca i32, align 4
  %3 = alloca i32, align 4
  store i32 0, i32* %1, align 4
  %4 = call i32 (i8*, ...) @__isoc99_scanf(i8* getelementptr inbounds ([3 x i8], [3 x i8]* @.str, i64 0, i64 0), i32* @n)
  store i32 0, i32* %2, align 4
  br label %5

5:                                                ; preds = %21, %0
  %6 = load i32, i32* %2, align 4
  %7 = load i32, i32* @n, align 4
  %8 = icmp slt i32 %6, %7
  br i1 %8, label %9, label %24

9:                                                ; preds = %5
  %10 = load i32, i32* %2, align 4
  %11 = sext i32 %10 to i64
  %12 = getelementptr inbounds [300 x i32], [300 x i32]* @a, i64 0, i64 %11
  %13 = call i32 (i8*, ...) @__isoc99_scanf(i8* getelementptr inbounds ([3 x i8], [3 x i8]* @.str, i64 0, i64 0), i32* %12)
  %14 = load i32, i32* %2, align 4
  %15 = sext i32 %14 to i64
  %16 = getelementptr inbounds [300 x i32], [300 x i32]* @a, i64 0, i64 %15
  %17 = load i32, i32* %16, align 4
  %18 = sitofp i32 %17 to float
  %19 = load float, float* @sum, align 4
  %20 = fadd float %19, %18
  store float %20, float* @sum, align 4
  br label %21

21:                                               ; preds = %9
  %22 = load i32, i32* %2, align 4
  %23 = add nsw i32 %22, 1
  store i32 %23, i32* %2, align 4
  br label %5

24:                                               ; preds = %5
  %25 = load float, float* @sum, align 4
  %26 = load i32, i32* @n, align 4
  %27 = sitofp i32 %26 to float
  %28 = fdiv float %25, %27
  store float %28, float* @ave, align 4
  call void @sort()
  store i32 0, i32* %3, align 4
  %29 = load float, float* @ave, align 4
  %30 = load i32, i32* getelementptr inbounds ([300 x i32], [300 x i32]* @a, i64 0, i64 0), align 16
  %31 = sitofp i32 %30 to float
  %32 = fsub float %29, %31
  %33 = load i32, i32* @n, align 4
  %34 = sub nsw i32 %33, 1
  %35 = sext i32 %34 to i64
  %36 = getelementptr inbounds [300 x i32], [300 x i32]* @a, i64 0, i64 %35
  %37 = load i32, i32* %36, align 4
  %38 = sitofp i32 %37 to float
  %39 = load float, float* @ave, align 4
  %40 = fsub float %38, %39
  %41 = fcmp oeq float %32, %40
  br i1 %41, label %42, label %81

42:                                               ; preds = %24
  store i32 0, i32* %2, align 4
  br label %43

43:                                               ; preds = %77, %42
  %44 = load i32, i32* %2, align 4
  %45 = load i32, i32* @n, align 4
  %46 = icmp slt i32 %44, %45
  br i1 %46, label %47, label %80

47:                                               ; preds = %43
  %48 = load i32, i32* %2, align 4
  %49 = sext i32 %48 to i64
  %50 = getelementptr inbounds [300 x i32], [300 x i32]* @a, i64 0, i64 %49
  %51 = load i32, i32* %50, align 4
  %52 = load i32, i32* getelementptr inbounds ([300 x i32], [300 x i32]* @a, i64 0, i64 0), align 16
  %53 = icmp eq i32 %51, %52
  br i1 %53, label %65, label %54

54:                                               ; preds = %47
  %55 = load i32, i32* %2, align 4
  %56 = sext i32 %55 to i64
  %57 = getelementptr inbounds [300 x i32], [300 x i32]* @a, i64 0, i64 %56
  %58 = load i32, i32* %57, align 4
  %59 = load i32, i32* @n, align 4
  %60 = sub nsw i32 %59, 1
  %61 = sext i32 %60 to i64
  %62 = getelementptr inbounds [300 x i32], [300 x i32]* @a, i64 0, i64 %61
  %63 = load i32, i32* %62, align 4
  %64 = icmp eq i32 %58, %63
  br i1 %64, label %65, label %76

65:                                               ; preds = %54, %47
  %66 = load i32, i32* %2, align 4
  %67 = icmp ne i32 %66, 0
  br i1 %67, label %68, label %70

68:                                               ; preds = %65
  %69 = call i32 (i8*, ...) @printf(i8* getelementptr inbounds ([2 x i8], [2 x i8]* @.str.1, i64 0, i64 0))
  br label %70

70:                                               ; preds = %68, %65
  %71 = load i32, i32* %2, align 4
  %72 = sext i32 %71 to i64
  %73 = getelementptr inbounds [300 x i32], [300 x i32]* @a, i64 0, i64 %72
  %74 = load i32, i32* %73, align 4
  %75 = call i32 (i8*, ...) @printf(i8* getelementptr inbounds ([3 x i8], [3 x i8]* @.str, i64 0, i64 0), i32 %74)
  br label %76

76:                                               ; preds = %70, %54
  br label %77

77:                                               ; preds = %76
  %78 = load i32, i32* %2, align 4
  %79 = add nsw i32 %78, 1
  store i32 %79, i32* %2, align 4
  br label %43

80:                                               ; preds = %43
  br label %169

81:                                               ; preds = %24
  %82 = load float, float* @ave, align 4
  %83 = load i32, i32* getelementptr inbounds ([300 x i32], [300 x i32]* @a, i64 0, i64 0), align 16
  %84 = sitofp i32 %83 to float
  %85 = fsub float %82, %84
  %86 = load i32, i32* @n, align 4
  %87 = sub nsw i32 %86, 1
  %88 = sext i32 %87 to i64
  %89 = getelementptr inbounds [300 x i32], [300 x i32]* @a, i64 0, i64 %88
  %90 = load i32, i32* %89, align 4
  %91 = sitofp i32 %90 to float
  %92 = load float, float* @ave, align 4
  %93 = fsub float %91, %92
  %94 = fcmp ogt float %85, %93
  br i1 %94, label %95, label %134

95:                                               ; preds = %81
  store i32 0, i32* %2, align 4
  br label %96

96:                                               ; preds = %130, %95
  %97 = load i32, i32* %2, align 4
  %98 = load i32, i32* @n, align 4
  %99 = icmp slt i32 %97, %98
  br i1 %99, label %100, label %133

100:                                              ; preds = %96
  %101 = load i32, i32* %2, align 4
  %102 = sext i32 %101 to i64
  %103 = getelementptr inbounds [300 x i32], [300 x i32]* @a, i64 0, i64 %102
  %104 = load i32, i32* %103, align 4
  %105 = load i32, i32* getelementptr inbounds ([300 x i32], [300 x i32]* @a, i64 0, i64 0), align 16
  %106 = icmp eq i32 %104, %105
  br i1 %106, label %107, label %129

107:                                              ; preds = %100
  %108 = load i32, i32* %2, align 4
  %109 = icmp ne i32 %108, 0
  br i1 %109, label %110, label %123

110:                                              ; preds = %107
  %111 = load i32, i32* %2, align 4
  %112 = add nsw i32 %111, 1
  %113 = sext i32 %112 to i64
  %114 = getelementptr inbounds [300 x i32], [300 x i32]* @a, i64 0, i64 %113
  %115 = load i32, i32* %114, align 4
  %116 = load i32, i32* %2, align 4
  %117 = sext i32 %116 to i64
  %118 = getelementptr inbounds [300 x i32], [300 x i32]* @a, i64 0, i64 %117
  %119 = load i32, i32* %118, align 4
  %120 = icmp eq i32 %115, %119
  br i1 %120, label %121, label %123

121:                                              ; preds = %110
  %122 = call i32 (i8*, ...) @printf(i8* getelementptr inbounds ([2 x i8], [2 x i8]* @.str.1, i64 0, i64 0))
  br label %123

123:                                              ; preds = %121, %110, %107
  %124 = load i32, i32* %2, align 4
  %125 = sext i32 %124 to i64
  %126 = getelementptr inbounds [300 x i32], [300 x i32]* @a, i64 0, i64 %125
  %127 = load i32, i32* %126, align 4
  %128 = call i32 (i8*, ...) @printf(i8* getelementptr inbounds ([3 x i8], [3 x i8]* @.str, i64 0, i64 0), i32 %127)
  br label %129

129:                                              ; preds = %123, %100
  br label %130

130:                                              ; preds = %129
  %131 = load i32, i32* %2, align 4
  %132 = add nsw i32 %131, 1
  store i32 %132, i32* %2, align 4
  br label %96

133:                                              ; preds = %96
  br label %168

134:                                              ; preds = %81
  store i32 0, i32* %2, align 4
  br label %135

135:                                              ; preds = %164, %134
  %136 = load i32, i32* %2, align 4
  %137 = sext i32 %136 to i64
  %138 = getelementptr inbounds [300 x i32], [300 x i32]* @a, i64 0, i64 %137
  %139 = load i32, i32* %138, align 4
  %140 = icmp ne i32 %139, 0
  br i1 %140, label %141, label %167

141:                                              ; preds = %135
  %142 = load i32, i32* %2, align 4
  %143 = sext i32 %142 to i64
  %144 = getelementptr inbounds [300 x i32], [300 x i32]* @a, i64 0, i64 %143
  %145 = load i32, i32* %144, align 4
  %146 = load i32, i32* @n, align 4
  %147 = sub nsw i32 %146, 1
  %148 = sext i32 %147 to i64
  %149 = getelementptr inbounds [300 x i32], [300 x i32]* @a, i64 0, i64 %148
  %150 = load i32, i32* %149, align 4
  %151 = icmp eq i32 %145, %150
  br i1 %151, label %152, label %163

152:                                              ; preds = %141
  %153 = load i32, i32* %3, align 4
  %154 = icmp ne i32 %153, 0
  br i1 %154, label %155, label %157

155:                                              ; preds = %152
  %156 = call i32 (i8*, ...) @printf(i8* getelementptr inbounds ([2 x i8], [2 x i8]* @.str.1, i64 0, i64 0))
  br label %157

157:                                              ; preds = %155, %152
  %158 = load i32, i32* %2, align 4
  %159 = sext i32 %158 to i64
  %160 = getelementptr inbounds [300 x i32], [300 x i32]* @a, i64 0, i64 %159
  %161 = load i32, i32* %160, align 4
  %162 = call i32 (i8*, ...) @printf(i8* getelementptr inbounds ([3 x i8], [3 x i8]* @.str, i64 0, i64 0), i32 %161)
  store i32 1, i32* %3, align 4
  br label %163

163:                                              ; preds = %157, %141
  br label %164

164:                                              ; preds = %163
  %165 = load i32, i32* %2, align 4
  %166 = add nsw i32 %165, 1
  store i32 %166, i32* %2, align 4
  br label %135

167:                                              ; preds = %135
  br label %168

168:                                              ; preds = %167, %133
  br label %169

169:                                              ; preds = %168, %80
  ret i32 0
}

; Function Attrs: noinline nounwind uwtable
define dso_local void @sort() #0 {
  %1 = alloca i32, align 4
  %2 = alloca i32, align 4
  %3 = alloca i32, align 4
  store i32 0, i32* %1, align 4
  br label %4

4:                                                ; preds = %46, %0
  %5 = load i32, i32* %1, align 4
  %6 = load i32, i32* @n, align 4
  %7 = sub nsw i32 %6, 1
  %8 = icmp slt i32 %5, %7
  br i1 %8, label %9, label %49

9:                                                ; preds = %4
  %10 = load i32, i32* %1, align 4
  store i32 %10, i32* %2, align 4
  br label %11

11:                                               ; preds = %42, %9
  %12 = load i32, i32* %2, align 4
  %13 = load i32, i32* @n, align 4
  %14 = icmp slt i32 %12, %13
  br i1 %14, label %15, label %45

15:                                               ; preds = %11
  %16 = load i32, i32* %1, align 4
  %17 = sext i32 %16 to i64
  %18 = getelementptr inbounds [300 x i32], [300 x i32]* @a, i64 0, i64 %17
  %19 = load i32, i32* %18, align 4
  %20 = load i32, i32* %2, align 4
  %21 = sext i32 %20 to i64
  %22 = getelementptr inbounds [300 x i32], [300 x i32]* @a, i64 0, i64 %21
  %23 = load i32, i32* %22, align 4
  %24 = icmp sgt i32 %19, %23
  br i1 %24, label %25, label %41

25:                                               ; preds = %15
  %26 = load i32, i32* %1, align 4
  %27 = sext i32 %26 to i64
  %28 = getelementptr inbounds [300 x i32], [300 x i32]* @a, i64 0, i64 %27
  %29 = load i32, i32* %28, align 4
  store i32 %29, i32* %3, align 4
  %30 = load i32, i32* %2, align 4
  %31 = sext i32 %30 to i64
  %32 = getelementptr inbounds [300 x i32], [300 x i32]* @a, i64 0, i64 %31
  %33 = load i32, i32* %32, align 4
  %34 = load i32, i32* %1, align 4
  %35 = sext i32 %34 to i64
  %36 = getelementptr inbounds [300 x i32], [300 x i32]* @a, i64 0, i64 %35
  store i32 %33, i32* %36, align 4
  %37 = load i32, i32* %3, align 4
  %38 = load i32, i32* %2, align 4
  %39 = sext i32 %38 to i64
  %40 = getelementptr inbounds [300 x i32], [300 x i32]* @a, i64 0, i64 %39
  store i32 %37, i32* %40, align 4
  br label %41

41:                                               ; preds = %25, %15
  br label %42

42:                                               ; preds = %41
  %43 = load i32, i32* %2, align 4
  %44 = add nsw i32 %43, 1
  store i32 %44, i32* %2, align 4
  br label %11

45:                                               ; preds = %11
  br label %46

46:                                               ; preds = %45
  %47 = load i32, i32* %1, align 4
  %48 = add nsw i32 %47, 1
  store i32 %48, i32* %1, align 4
  br label %4

49:                                               ; preds = %4
  ret void
}